; Function Attrs: nounwind uwtable
define void @stbhw__process_h_row(ptr noundef %0, i32 noundef %1, i32 noundef %2, i32 noundef %3, i32 noundef %4, i32 noundef %5, i32 noundef %6, i32 noundef %7, i32 noundef %8, i32 noundef %9, i32 noundef %10, i32 noundef %11, i32 noundef %12, i32 noundef %13, i32 noundef %14, i32 noundef %15) local_unnamed_addr #2 {
  %17 = icmp sgt i32 %15, 0
  br i1 %17, label %.preheader54.lr.ph, label %._crit_edge156

.preheader54.lr.ph:                               ; preds = %16
  %.not121 = icmp sgt i32 %13, %14
  %.not4676 = icmp sgt i32 %9, %10
  %.not4763 = icmp sgt i32 %7, %8
  %.not4858 = icmp sgt i32 %5, %6
  %.not4955 = icmp sgt i32 %3, %4
  %18 = getelementptr inbounds nuw i8, ptr %0, i64 16
  %19 = getelementptr inbounds nuw i8, ptr %0, i64 8
  %.not4595 = icmp sgt i32 %11, %12
  %or.cond = or i1 %.not121, %.not4595
  %brmerge = or i1 %or.cond, %.not4676
  %brmerge184 = or i1 %brmerge, %.not4763
  %brmerge185 = or i1 %brmerge184, %.not4858
  %brmerge186 = or i1 %brmerge185, %.not4955
  br i1 %brmerge186, label %._crit_edge156, label %.preheader54

.preheader54:                                     ; preds = %.preheader54.lr.ph, %._crit_edge128.split.split.split.split.split
  %.0155 = phi i32 [ %34, %._crit_edge128.split.split.split.split.split ], [ 0, %.preheader54.lr.ph ]
  %.044154 = phi i32 [ %27, %._crit_edge128.split.split.split.split.split ], [ %1, %.preheader54.lr.ph ]
  br label %.preheader53

.preheader53:                                     ; preds = %.preheader54, %._crit_edge101.split.split.split.split
  %.038123 = phi i32 [ %13, %.preheader54 ], [ %33, %._crit_edge101.split.split.split.split ]
  %.1122 = phi i32 [ %.044154, %.preheader54 ], [ %27, %._crit_edge101.split.split.split.split ]
  br label %.preheader52

.preheader52:                                     ; preds = %.preheader53, %._crit_edge81.split.split.split
  %.03997 = phi i32 [ %11, %.preheader53 ], [ %32, %._crit_edge81.split.split.split ]
  %.296 = phi i32 [ %.1122, %.preheader53 ], [ %27, %._crit_edge81.split.split.split ]
  br label %.preheader51

.preheader51:                                     ; preds = %.preheader52, %._crit_edge67.split.split
  %.04078 = phi i32 [ %9, %.preheader52 ], [ %31, %._crit_edge67.split.split ]
  %.377 = phi i32 [ %.296, %.preheader52 ], [ %27, %._crit_edge67.split.split ]
  br label %.preheader50

.preheader50:                                     ; preds = %.preheader51, %._crit_edge61.split
  %.04165 = phi i32 [ %7, %.preheader51 ], [ %30, %._crit_edge61.split ]
  %.464 = phi i32 [ %.377, %.preheader51 ], [ %27, %._crit_edge61.split ]
  br label %.preheader

.preheader:                                       ; preds = %.preheader50, %._crit_edge
  %.04260 = phi i32 [ %5, %.preheader50 ], [ %29, %._crit_edge ]
  %.559 = phi i32 [ %.464, %.preheader50 ], [ %27, %._crit_edge ]
  br label %20

20:                                               ; preds = %.preheader, %20
  %.04357 = phi i32 [ %3, %.preheader ], [ %28, %20 ]
  %.656 = phi i32 [ %.559, %.preheader ], [ %27, %20 ]
  %21 = load ptr, ptr %18, align 8, !tbaa !8
  tail call void %21(ptr noundef %0, i32 noundef %.656, i32 noundef %2, i32 noundef %.04357, i32 noundef %.04260, i32 noundef %.04165, i32 noundef %.04078, i32 noundef %.03997, i32 noundef %.038123) #15
  %22 = load ptr, ptr %19, align 8, !tbaa !12
  %23 = getelementptr inbounds nuw i8, ptr %22, i64 4
  %24 = load i32, ptr %23, align 4, !tbaa !13
  %25 = shl nsw i32 %24, 1
  %26 = add i32 %.656, 3
  %27 = add i32 %26, %25
  %28 = add i32 %.04357, 1
  %exitcond.not = icmp eq i32 %.04357, %4
  br i1 %exitcond.not, label %._crit_edge, label %20, !llvm.loop !15

._crit_edge:                                      ; preds = %20
  %29 = add i32 %.04260, 1
  %exitcond178.not = icmp eq i32 %.04260, %6
  br i1 %exitcond178.not, label %._crit_edge61.split, label %.preheader, !llvm.loop !17

._crit_edge61.split:                              ; preds = %._crit_edge
  %30 = add i32 %.04165, 1
  %exitcond179.not = icmp eq i32 %.04165, %8
  br i1 %exitcond179.not, label %._crit_edge67.split.split, label %.preheader50, !llvm.loop !18

._crit_edge67.split.split:                        ; preds = %._crit_edge61.split
  %31 = add i32 %.04078, 1
  %exitcond180.not = icmp eq i32 %.04078, %10
  br i1 %exitcond180.not, label %._crit_edge81.split.split.split, label %.preheader51, !llvm.loop !19

._crit_edge81.split.split.split:                  ; preds = %._crit_edge67.split.split
  %32 = add i32 %.03997, 1
  %exitcond181.not = icmp eq i32 %.03997, %12
  br i1 %exitcond181.not, label %._crit_edge101.split.split.split.split, label %.preheader52, !llvm.loop !20

._crit_edge101.split.split.split.split:           ; preds = %._crit_edge81.split.split.split
  %33 = add i32 %.038123, 1
  %exitcond182.not = icmp eq i32 %.038123, %14
  br i1 %exitcond182.not, label %._crit_edge128.split.split.split.split.split, label %.preheader53, !llvm.loop !21

._crit_edge128.split.split.split.split.split:     ; preds = %._crit_edge101.split.split.split.split
  %34 = add nuw nsw i32 %.0155, 1
  %exitcond183.not = icmp eq i32 %34, %15
  br i1 %exitcond183.not, label %._crit_edge156, label %.preheader54, !llvm.loop !22

._crit_edge156:                                   ; preds = %._crit_edge128.split.split.split.split.split, %.preheader54.lr.ph, %16
  ret void
}